target datalayout = "e-m:e-p270:32:32-p271:32:32-p272:64:64-i64:64-i128:128-f80:128-n8:16:32:64-S128"
target triple = "x86_64-pc-linux-gnu"

%struct.Trigger = type { i32, ptr, i32, i16, i8, i8, i8, i32, i32, i32, i8, i8, i16, i16, ptr, ptr, ptr, ptr, ptr }
%struct.TriggerDesc = type { ptr, i32, i8, i8, i8, i8, i8, i8, i8, i8, i8, i8, i8, i8, i8, i8, i8, i8, i8, i8, i8, i8, i8 }

; Function Attrs: nounwind uwtable
define dso_local ptr @FindTriggerIncompatibleWithInheritance(ptr noundef %0) #0 {
  %2 = alloca ptr, align 8
  %3 = alloca ptr, align 8
  %4 = alloca i32, align 4
  %5 = alloca ptr, align 8
  %6 = alloca i32, align 4
  store ptr %0, ptr %3, align 8
  %7 = load ptr, ptr %3, align 8
  %8 = icmp ne ptr %7, null
  br i1 %8, label %9, label %47

9:                                                ; preds = %1
  call void @llvm.lifetime.start.p0(i64 4, ptr %4) #12
  store i32 0, ptr %4, align 4
  br label %10

10:                                               ; preds = %40, %9
  %11 = load i32, ptr %4, align 4
  %12 = load ptr, ptr %3, align 8
  %13 = getelementptr inbounds nuw %struct.TriggerDesc, ptr %12, i32 0, i32 1
  %14 = load i32, ptr %13, align 8
  %15 = icmp slt i32 %11, %14
  br i1 %15, label %16, label %43

16:                                               ; preds = %10
  call void @llvm.lifetime.start.p0(i64 8, ptr %5) #12
  %17 = load ptr, ptr %3, align 8
  %18 = getelementptr inbounds nuw %struct.TriggerDesc, ptr %17, i32 0, i32 0
  %19 = load ptr, ptr %18, align 8
  %20 = load i32, ptr %4, align 4
  %21 = sext i32 %20 to i64
  %22 = getelementptr inbounds %struct.Trigger, ptr %19, i64 %21
  store ptr %22, ptr %5, align 8
  %23 = load ptr, ptr %5, align 8
  %24 = getelementptr inbounds nuw %struct.Trigger, ptr %23, i32 0, i32 17
  %25 = load ptr, ptr %24, align 8
  %26 = icmp ne ptr %25, null
  br i1 %26, label %32, label %27

27:                                               ; preds = %16
  %28 = load ptr, ptr %5, align 8
  %29 = getelementptr inbounds nuw %struct.Trigger, ptr %28, i32 0, i32 18
  %30 = load ptr, ptr %29, align 8
  %31 = icmp ne ptr %30, null
  br i1 %31, label %32, label %36

32:                                               ; preds = %27, %16
  %33 = load ptr, ptr %5, align 8
  %34 = getelementptr inbounds nuw %struct.Trigger, ptr %33, i32 0, i32 1
  %35 = load ptr, ptr %34, align 8
  store ptr %35, ptr %2, align 8
  store i32 1, ptr %6, align 4
  br label %37

36:                                               ; preds = %27
  store i32 0, ptr %6, align 4
  br label %37

37:                                               ; preds = %36, %32
  call void @llvm.lifetime.end.p0(i64 8, ptr %5) #12
  %38 = load i32, ptr %6, align 4
  switch i32 %38, label %44 [
    i32 0, label %39
  ]

39:                                               ; preds = %37
  br label %40

40:                                               ; preds = %39
  %41 = load i32, ptr %4, align 4
  %42 = add i32 %41, 1
  store i32 %42, ptr %4, align 4
  br label %10, !llvm.loop !29

43:                                               ; preds = %10
  store i32 0, ptr %6, align 4
  br label %44

44:                                               ; preds = %43, %37
  call void @llvm.lifetime.end.p0(i64 4, ptr %4) #12
  %45 = load i32, ptr %6, align 4
  switch i32 %45, label %50 [
    i32 0, label %46
    i32 1, label %48
  ]

46:                                               ; preds = %44
  br label %47

47:                                               ; preds = %46, %1
  store ptr null, ptr %2, align 8
  br label %48

48:                                               ; preds = %47, %44
  %49 = load ptr, ptr %2, align 8
  ret ptr %49

50:                                               ; preds = %44
  unreachable
}