; Function Attrs: nofree norecurse nosync nounwind memory(read, inaccessiblemem: none) uwtable
define dso_local ptr @FindTriggerIncompatibleWithInheritance(ptr noundef readonly captures(address_is_null) %0) local_unnamed_addr #8 {
  %.not = icmp eq ptr %0, null
  br i1 %.not, label %.thread20, label %.preheader

.preheader:                                       ; preds = %1
  %2 = getelementptr inbounds nuw i8, ptr %0, i64 8
  %3 = load i32, ptr %2, align 8
  %4 = icmp sgt i32 %3, 0
  br i1 %4, label %.lr.ph, label %.thread20

.lr.ph:                                           ; preds = %.preheader
  %5 = load ptr, ptr %0, align 8
  %wide.trip.count = zext nneg i32 %3 to i64
  br label %7

6:                                                ; preds = %11
  %indvars.iv.next = add nuw nsw i64 %indvars.iv, 1
  %exitcond.not = icmp eq i64 %indvars.iv.next, %wide.trip.count
  br i1 %exitcond.not, label %.thread20, label %7, !llvm.loop !26

7:                                                ; preds = %.lr.ph, %6
  %indvars.iv = phi i64 [ 0, %.lr.ph ], [ %indvars.iv.next, %6 ]
  %8 = getelementptr inbounds nuw %struct.Trigger, ptr %5, i64 %indvars.iv
  %9 = getelementptr inbounds nuw i8, ptr %8, i64 72
  %10 = load ptr, ptr %9, align 8
  %.not15 = icmp eq ptr %10, null
  br i1 %.not15, label %11, label %14

11:                                               ; preds = %7
  %12 = getelementptr inbounds nuw i8, ptr %8, i64 80
  %13 = load ptr, ptr %12, align 8
  %.not16 = icmp eq ptr %13, null
  br i1 %.not16, label %6, label %14

14:                                               ; preds = %11, %7
  %15 = getelementptr inbounds nuw i8, ptr %8, i64 8
  %16 = load ptr, ptr %15, align 8
  br label %.thread20

.thread20:                                        ; preds = %6, %.preheader, %1, %14
  %.3 = phi ptr [ %16, %14 ], [ null, %1 ], [ null, %.preheader ], [ null, %6 ]
  ret ptr %.3
}